target datalayout = "e-m:e-p270:32:32-p271:32:32-p272:64:64-i64:64-i128:128-f80:128-n8:16:32:64-S128"
target triple = "x86_64-pc-linux-gnu"

%class.anon = type { i8 }

@.str = private unnamed_addr constant [1 x i8] zeroinitializer, align 1
@.str.1 = private unnamed_addr constant [41 x i8] c"Failed to load OpenGL and its extensions\00", align 1
@glad_glGetError = external global ptr, align 8

; Function Attrs: inlinehint mustprogress nounwind uwtable
define internal noundef ptr @"_ZZN3igl6opengl4glfw17background_windowERP10GLFWwindowENK3$_0cvPFviPKcEEv"(ptr noundef nonnull align 1 dereferenceable(1) %0) #3 align 2 {
  %2 = alloca ptr, align 8
  store ptr %0, ptr %2, align 8, !tbaa !12
  ret ptr @"_ZZN3igl6opengl4glfw17background_windowERP10GLFWwindowEN3$_08__invokeEiPKc"
}

; Function Attrs: mustprogress uwtable
define dso_local noundef zeroext i1 @_ZN3igl6opengl4glfw17background_windowERP10GLFWwindow(ptr noundef nonnull align 8 dereferenceable(8) %0) #0 {
  %2 = alloca i1, align 1
  %3 = alloca ptr, align 8
  %4 = alloca %class.anon, align 1
  store ptr %0, ptr %3, align 8, !tbaa !4
  %5 = call i32 @glfwInit()
  %6 = icmp ne i32 %5, 0
  br i1 %6, label %8, label %7

7:                                                ; preds = %1
  store i1 false, ptr %2, align 1
  br label %27

8:                                                ; preds = %1
  call void @llvm.lifetime.start.p0(i64 1, ptr %4) #8
  %9 = call noundef ptr @"_ZZN3igl6opengl4glfw17background_windowERP10GLFWwindowENK3$_0cvPFviPKcEEv"(ptr noundef nonnull align 1 dereferenceable(1) %4) #8
  %10 = call ptr @glfwSetErrorCallback(ptr noundef %9)
  call void @llvm.lifetime.end.p0(i64 1, ptr %4) #8
  call void @glfwWindowHint(i32 noundef 135181, i32 noundef 4)
  call void @glfwWindowHint(i32 noundef 139266, i32 noundef 4)
  call void @glfwWindowHint(i32 noundef 139267, i32 noundef 1)
  call void @glfwWindowHint(i32 noundef 139272, i32 noundef 204801)
  call void @glfwWindowHint(i32 noundef 139270, i32 noundef 1)
  call void @glfwWindowHint(i32 noundef 131076, i32 noundef 0)
  %11 = call ptr @glfwCreateWindow(i32 noundef 1, i32 noundef 1, ptr noundef @.str, ptr noundef null, ptr noundef null)
  %12 = load ptr, ptr %3, align 8, !tbaa !4
  store ptr %11, ptr %12, align 8, !tbaa !10
  %13 = load ptr, ptr %3, align 8, !tbaa !4
  %14 = load ptr, ptr %13, align 8, !tbaa !10
  %15 = icmp ne ptr %14, null
  br i1 %15, label %17, label %16

16:                                               ; preds = %8
  store i1 false, ptr %2, align 1
  br label %27

17:                                               ; preds = %8
  %18 = load ptr, ptr %3, align 8, !tbaa !4
  %19 = load ptr, ptr %18, align 8, !tbaa !10
  call void @glfwMakeContextCurrent(ptr noundef %19)
  %20 = call i32 @gladLoadGLLoader(ptr noundef @glfwGetProcAddress)
  %21 = icmp ne i32 %20, 0
  br i1 %21, label %24, label %22

22:                                               ; preds = %17
  %23 = call i32 (ptr, ...) @printf(ptr noundef @.str.1)
  br label %24

24:                                               ; preds = %22, %17
  %25 = load ptr, ptr @glad_glGetError, align 8, !tbaa !12
  %26 = call i32 %25()
  store i1 true, ptr %2, align 1
  br label %27

27:                                               ; preds = %24, %16, %7
  %28 = load i1, ptr %2, align 1
  ret i1 %28
}