; Function Attrs: mustprogress uwtable
define dso_local noundef zeroext i1 @_ZN3igl6opengl4glfw17background_windowERP10GLFWwindow(ptr noundef nonnull writeonly align 8 captures(none) dereferenceable(8) %0) local_unnamed_addr #0 {
  %2 = tail call i32 @glfwInit()
  %.not = icmp eq i32 %2, 0
  br i1 %.not, label %13, label %3

3:                                                ; preds = %1
  %4 = tail call ptr @glfwSetErrorCallback(ptr noundef nonnull @"_ZZN3igl6opengl4glfw17background_windowERP10GLFWwindowEN3$_08__invokeEiPKc")
  tail call void @glfwWindowHint(i32 noundef 135181, i32 noundef 4)
  tail call void @glfwWindowHint(i32 noundef 139266, i32 noundef 4)
  tail call void @glfwWindowHint(i32 noundef 139267, i32 noundef 1)
  tail call void @glfwWindowHint(i32 noundef 139272, i32 noundef 204801)
  tail call void @glfwWindowHint(i32 noundef 139270, i32 noundef 1)
  tail call void @glfwWindowHint(i32 noundef 131076, i32 noundef 0)
  %5 = tail call ptr @glfwCreateWindow(i32 noundef 1, i32 noundef 1, ptr noundef nonnull @.str, ptr noundef null, ptr noundef null)
  store ptr %5, ptr %0, align 8, !tbaa !4
  %.not5 = icmp eq ptr %5, null
  br i1 %.not5, label %13, label %6

6:                                                ; preds = %3
  tail call void @glfwMakeContextCurrent(ptr noundef nonnull %5)
  %7 = tail call i32 @gladLoadGLLoader(ptr noundef nonnull @glfwGetProcAddress)
  %.not6 = icmp eq i32 %7, 0
  br i1 %.not6, label %8, label %10

8:                                                ; preds = %6
  %9 = tail call i32 (ptr, ...) @printf(ptr noundef nonnull dereferenceable(1) @.str.1)
  br label %10

10:                                               ; preds = %8, %6
  %11 = load ptr, ptr @glad_glGetError, align 8, !tbaa !9
  %12 = tail call i32 %11()
  br label %13

13:                                               ; preds = %3, %1, %10
  %.0 = phi i1 [ true, %10 ], [ false, %1 ], [ false, %3 ]
  ret i1 %.0
}